target datalayout = "e-m:e-p270:32:32-p271:32:32-p272:64:64-i64:64-i128:128-f80:128-n8:16:32:64-S128"
target triple = "x86_64-pc-linux-gnu"

%"struct.std::__detail::_Hash_node_base" = type { ptr }
%"struct.std::__detail::_Prime_rehash_policy" = type { float, i64 }
%"struct.duckdb::ScheduleEventData" = type { ptr, ptr, i8, %"class.std::unordered_map.391" }
%"class.std::unordered_map.391" = type { %"class.std::_Hashtable.392" }
%"class.std::_Hashtable.392" = type { ptr, i64, %"struct.std::__detail::_Hash_node_base", i64, %"struct.std::__detail::_Prime_rehash_policy", ptr }

; Function Attrs: mustprogress nounwind uwtable
define linkonce_odr void @_ZNSt15__new_allocatorINSt8__detail10_Hash_nodeISt4pairIKSt17reference_wrapperIN6duckdb8PipelineEENS4_18PipelineEventStackEELb1EEEEC2Ev(ptr noundef nonnull align 1 dereferenceable(1) %0) unnamed_addr #1 comdat align 2 {
  %2 = alloca ptr, align 8
  store ptr %0, ptr %2, align 8, !tbaa !1772
  ret void
}

; Function Attrs: mustprogress nounwind uwtable
define linkonce_odr void @_ZNSaINSt8__detail10_Hash_nodeISt4pairIKSt17reference_wrapperIN6duckdb8PipelineEENS3_18PipelineEventStackEELb1EEEEC2Ev(ptr noundef nonnull align 1 dereferenceable(1) %0) unnamed_addr #1 comdat align 2 {
  %2 = alloca ptr, align 8
  store ptr %0, ptr %2, align 8, !tbaa !1770
  %3 = load ptr, ptr %2, align 8
  call void @_ZNSt15__new_allocatorINSt8__detail10_Hash_nodeISt4pairIKSt17reference_wrapperIN6duckdb8PipelineEENS4_18PipelineEventStackEELb1EEEEC2Ev(ptr noundef nonnull align 1 dereferenceable(1) %3) #24
  ret void
}

; Function Attrs: mustprogress nounwind uwtable
define linkonce_odr void @_ZNSt8__detail21_Hashtable_ebo_helperILi1EN6duckdb21ReferenceHashFunctionINS1_8PipelineEEELb1EEC2Ev(ptr noundef nonnull align 1 dereferenceable(1) %0) unnamed_addr #1 comdat align 2 {
  %2 = alloca ptr, align 8
  store ptr %0, ptr %2, align 8, !tbaa !1430
  ret void
}

; Function Attrs: mustprogress nounwind uwtable
define linkonce_odr void @_ZNSt8__detail21_Hashtable_ebo_helperILi0ESaINS_10_Hash_nodeISt4pairIKSt17reference_wrapperIN6duckdb8PipelineEENS4_18PipelineEventStackEELb1EEEELb1EEC2Ev(ptr noundef nonnull align 1 dereferenceable(1) %0) unnamed_addr #1 comdat align 2 {
  %2 = alloca ptr, align 8
  store ptr %0, ptr %2, align 8, !tbaa !1768
  %3 = load ptr, ptr %2, align 8
  call void @_ZNSaINSt8__detail10_Hash_nodeISt4pairIKSt17reference_wrapperIN6duckdb8PipelineEENS3_18PipelineEventStackEELb1EEEEC2Ev(ptr noundef nonnull align 1 dereferenceable(1) %3) #24
  ret void
}

; Function Attrs: mustprogress nounwind uwtable
define linkonce_odr void @_ZNSt8__detail21_Hashtable_ebo_helperILi0EN6duckdb17ReferenceEqualityINS1_8PipelineEEELb1EEC2Ev(ptr noundef nonnull align 1 dereferenceable(1) %0) unnamed_addr #1 comdat align 2 {
  %2 = alloca ptr, align 8
  store ptr %0, ptr %2, align 8, !tbaa !1428
  ret void
}

; Function Attrs: mustprogress nounwind uwtable
define linkonce_odr void @_ZNSt8__detail15_Hash_code_baseISt17reference_wrapperIN6duckdb8PipelineEESt4pairIKS4_NS2_18PipelineEventStackEENS_10_Select1stENS2_21ReferenceHashFunctionIS3_EENS_18_Mod_range_hashingENS_20_Default_ranged_hashELb1EEC2Ev(ptr noundef nonnull align 1 dereferenceable(1) %0) unnamed_addr #1 comdat align 2 {
  %2 = alloca ptr, align 8
  store ptr %0, ptr %2, align 8, !tbaa !1766
  %3 = load ptr, ptr %2, align 8
  call void @_ZNSt8__detail21_Hashtable_ebo_helperILi1EN6duckdb21ReferenceHashFunctionINS1_8PipelineEEELb1EEC2Ev(ptr noundef nonnull align 1 dereferenceable(1) %3) #24
  ret void
}

; Function Attrs: mustprogress nounwind uwtable
define linkonce_odr void @_ZNSt8__detail20_Prime_rehash_policyC2Ef(ptr noundef nonnull align 8 dereferenceable(16) %0, float noundef %1) unnamed_addr #1 comdat align 2 {
  %3 = alloca ptr, align 8
  %4 = alloca float, align 4
  store ptr %0, ptr %3, align 8, !tbaa !1421
  store float %1, ptr %4, align 4, !tbaa !1423
  %5 = load ptr, ptr %3, align 8
  %6 = getelementptr inbounds nuw %"struct.std::__detail::_Prime_rehash_policy", ptr %5, i32 0, i32 0
  %7 = load float, ptr %4, align 4, !tbaa !1423
  store float %7, ptr %6, align 8, !tbaa !1424
  %8 = getelementptr inbounds nuw %"struct.std::__detail::_Prime_rehash_policy", ptr %5, i32 0, i32 1
  store i64 0, ptr %8, align 8, !tbaa !1425
  ret void
}

; Function Attrs: mustprogress nounwind uwtable
define linkonce_odr void @_ZNSt8__detail15_Hash_node_baseC2Ev(ptr noundef nonnull align 8 dereferenceable(8) %0) unnamed_addr #1 comdat align 2 {
  %2 = alloca ptr, align 8
  store ptr %0, ptr %2, align 8, !tbaa !1419
  %3 = load ptr, ptr %2, align 8
  %4 = getelementptr inbounds nuw %"struct.std::__detail::_Hash_node_base", ptr %3, i32 0, i32 0
  store ptr null, ptr %4, align 8, !tbaa !1420
  ret void
}

; Function Attrs: mustprogress nounwind uwtable
define linkonce_odr void @_ZNSt8__detail16_Hashtable_allocISaINS_10_Hash_nodeISt4pairIKSt17reference_wrapperIN6duckdb8PipelineEENS4_18PipelineEventStackEELb1EEEEEC2Ev(ptr noundef nonnull align 1 dereferenceable(1) %0) unnamed_addr #1 comdat align 2 {
  %2 = alloca ptr, align 8
  store ptr %0, ptr %2, align 8, !tbaa !1764
  %3 = load ptr, ptr %2, align 8
  call void @_ZNSt8__detail21_Hashtable_ebo_helperILi0ESaINS_10_Hash_nodeISt4pairIKSt17reference_wrapperIN6duckdb8PipelineEENS4_18PipelineEventStackEELb1EEEELb1EEC2Ev(ptr noundef nonnull align 1 dereferenceable(1) %3) #24
  ret void
}

; Function Attrs: mustprogress nounwind uwtable
define linkonce_odr void @_ZNSt8__detail15_Hashtable_baseISt17reference_wrapperIN6duckdb8PipelineEESt4pairIKS4_NS2_18PipelineEventStackEENS_10_Select1stENS2_17ReferenceEqualityIS3_EENS2_21ReferenceHashFunctionIS3_EENS_18_Mod_range_hashingENS_20_Default_ranged_hashENS_17_Hashtable_traitsILb1ELb0ELb1EEEEC2Ev(ptr noundef nonnull align 1 dereferenceable(1) %0) unnamed_addr #1 comdat align 2 {
  %2 = alloca ptr, align 8
  store ptr %0, ptr %2, align 8, !tbaa !1762
  %3 = load ptr, ptr %2, align 8
  call void @_ZNSt8__detail15_Hash_code_baseISt17reference_wrapperIN6duckdb8PipelineEESt4pairIKS4_NS2_18PipelineEventStackEENS_10_Select1stENS2_21ReferenceHashFunctionIS3_EENS_18_Mod_range_hashingENS_20_Default_ranged_hashELb1EEC2Ev(ptr noundef nonnull align 1 dereferenceable(1) %3) #24
  call void @_ZNSt8__detail21_Hashtable_ebo_helperILi0EN6duckdb17ReferenceEqualityINS1_8PipelineEEELb1EEC2Ev(ptr noundef nonnull align 1 dereferenceable(1) %3) #24
  ret void
}

; Function Attrs: mustprogress nounwind uwtable
define linkonce_odr void @_ZNSt10_HashtableISt17reference_wrapperIN6duckdb8PipelineEESt4pairIKS3_NS1_18PipelineEventStackEESaIS7_ENSt8__detail10_Select1stENS1_17ReferenceEqualityIS2_EENS1_21ReferenceHashFunctionIS2_EENS9_18_Mod_range_hashingENS9_20_Default_ranged_hashENS9_20_Prime_rehash_policyENS9_17_Hashtable_traitsILb1ELb0ELb1EEEEC2Ev(ptr noundef nonnull align 8 dereferenceable(56) %0) unnamed_addr #1 comdat align 2 {
  %2 = alloca ptr, align 8
  store ptr %0, ptr %2, align 8, !tbaa !1756
  %3 = load ptr, ptr %2, align 8
  call void @_ZNSt8__detail15_Hashtable_baseISt17reference_wrapperIN6duckdb8PipelineEESt4pairIKS4_NS2_18PipelineEventStackEENS_10_Select1stENS2_17ReferenceEqualityIS3_EENS2_21ReferenceHashFunctionIS3_EENS_18_Mod_range_hashingENS_20_Default_ranged_hashENS_17_Hashtable_traitsILb1ELb0ELb1EEEEC2Ev(ptr noundef nonnull align 1 dereferenceable(1) %3) #24
  call void @_ZNSt8__detail16_Hashtable_allocISaINS_10_Hash_nodeISt4pairIKSt17reference_wrapperIN6duckdb8PipelineEENS4_18PipelineEventStackEELb1EEEEEC2Ev(ptr noundef nonnull align 1 dereferenceable(1) %3) #24
  %4 = getelementptr inbounds nuw %"class.std::_Hashtable.392", ptr %3, i32 0, i32 0
  %5 = getelementptr inbounds nuw %"class.std::_Hashtable.392", ptr %3, i32 0, i32 5
  store ptr %5, ptr %4, align 8, !tbaa !1758
  %6 = getelementptr inbounds nuw %"class.std::_Hashtable.392", ptr %3, i32 0, i32 1
  store i64 1, ptr %6, align 8, !tbaa !1759
  %7 = getelementptr inbounds nuw %"class.std::_Hashtable.392", ptr %3, i32 0, i32 2
  call void @_ZNSt8__detail15_Hash_node_baseC2Ev(ptr noundef nonnull align 8 dereferenceable(8) %7) #24
  %8 = getelementptr inbounds nuw %"class.std::_Hashtable.392", ptr %3, i32 0, i32 3
  store i64 0, ptr %8, align 8, !tbaa !1760
  %9 = getelementptr inbounds nuw %"class.std::_Hashtable.392", ptr %3, i32 0, i32 4
  call void @_ZNSt8__detail20_Prime_rehash_policyC2Ef(ptr noundef nonnull align 8 dereferenceable(16) %9, float noundef 1.000000e+00) #24
  %10 = getelementptr inbounds nuw %"class.std::_Hashtable.392", ptr %3, i32 0, i32 5
  store ptr null, ptr %10, align 8, !tbaa !1761
  ret void
}

; Function Attrs: mustprogress nounwind uwtable
define linkonce_odr void @_ZNSt13unordered_mapISt17reference_wrapperIN6duckdb8PipelineEENS1_18PipelineEventStackENS1_21ReferenceHashFunctionIS2_EENS1_17ReferenceEqualityIS2_EESaISt4pairIKS3_S4_EEEC2Ev(ptr noundef nonnull align 8 dereferenceable(56) %0) unnamed_addr #1 comdat align 2 {
  %2 = alloca ptr, align 8
  store ptr %0, ptr %2, align 8, !tbaa !392
  %3 = load ptr, ptr %2, align 8
  %4 = getelementptr inbounds nuw %"class.std::unordered_map.391", ptr %3, i32 0, i32 0
  call void @_ZNSt10_HashtableISt17reference_wrapperIN6duckdb8PipelineEESt4pairIKS3_NS1_18PipelineEventStackEESaIS7_ENSt8__detail10_Select1stENS1_17ReferenceEqualityIS2_EENS1_21ReferenceHashFunctionIS2_EENS9_18_Mod_range_hashingENS9_20_Default_ranged_hashENS9_20_Prime_rehash_policyENS9_17_Hashtable_traitsILb1ELb0ELb1EEEEC2Ev(ptr noundef nonnull align 8 dereferenceable(56) %4) #24
  ret void
}

; Function Attrs: mustprogress nounwind uwtable
define linkonce_odr void @_ZN6duckdb17ScheduleEventDataC2ERKNS_6vectorINS_10shared_ptrINS_12MetaPipelineELb1EEELb1EEERNS1_INS2_INS_5EventELb1EEELb1EEEb(ptr noundef nonnull align 8 dereferenceable(80) %0, ptr noundef nonnull align 8 dereferenceable(24) %1, ptr noundef nonnull align 8 dereferenceable(24) %2, i1 noundef zeroext %3) unnamed_addr #1 comdat align 2 {
  %5 = alloca ptr, align 8
  %6 = alloca ptr, align 8
  %7 = alloca ptr, align 8
  %8 = alloca i8, align 1
  store ptr %0, ptr %5, align 8, !tbaa !386
  store ptr %1, ptr %6, align 8, !tbaa !133
  store ptr %2, ptr %7, align 8, !tbaa !356
  %9 = zext i1 %3 to i8
  store i8 %9, ptr %8, align 1, !tbaa !151
  %10 = load ptr, ptr %5, align 8
  %11 = getelementptr inbounds nuw %"struct.duckdb::ScheduleEventData", ptr %10, i32 0, i32 0
  %12 = load ptr, ptr %6, align 8, !tbaa !133
  store ptr %12, ptr %11, align 8, !tbaa !133
  %13 = getelementptr inbounds nuw %"struct.duckdb::ScheduleEventData", ptr %10, i32 0, i32 1
  %14 = load ptr, ptr %7, align 8, !tbaa !356
  store ptr %14, ptr %13, align 8, !tbaa !356
  %15 = getelementptr inbounds nuw %"struct.duckdb::ScheduleEventData", ptr %10, i32 0, i32 2
  %16 = load i8, ptr %8, align 1, !tbaa !151, !range !152, !noundef !153
  %17 = trunc i8 %16 to i1
  %18 = zext i1 %17 to i8
  store i8 %18, ptr %15, align 8, !tbaa !569
  %19 = getelementptr inbounds nuw %"struct.duckdb::ScheduleEventData", ptr %10, i32 0, i32 3
  call void @_ZNSt13unordered_mapISt17reference_wrapperIN6duckdb8PipelineEENS1_18PipelineEventStackENS1_21ReferenceHashFunctionIS2_EENS1_17ReferenceEqualityIS2_EESaISt4pairIKS3_S4_EEEC2Ev(ptr noundef nonnull align 8 dereferenceable(56) %19) #24
  ret void
}

; Function Attrs: mustprogress uwtable
define void @_ZN6duckdb8Executor19ReschedulePipelinesERKNS_6vectorINS_10shared_ptrINS_12MetaPipelineELb1EEELb1EEERNS1_INS2_INS_5EventELb1EEELb1EEE(ptr noundef nonnull align 8 dereferenceable(424) %0, ptr noundef nonnull align 8 dereferenceable(24) %1, ptr noundef nonnull align 8 dereferenceable(24) %2) #0 align 2 personality ptr @__gxx_personality_v0 {
  %4 = alloca ptr, align 8
  %5 = alloca ptr, align 8
  %6 = alloca ptr, align 8
  %7 = alloca %"struct.duckdb::ScheduleEventData", align 8
  %8 = alloca ptr, align 8
  %9 = alloca i32, align 4
  store ptr %0, ptr %4, align 8, !tbaa !62
  store ptr %1, ptr %5, align 8, !tbaa !133
  store ptr %2, ptr %6, align 8, !tbaa !356
  %10 = load ptr, ptr %4, align 8
  call void @llvm.lifetime.start.p0(i64 80, ptr %7) #24
  %11 = load ptr, ptr %5, align 8, !tbaa !133
  %12 = load ptr, ptr %6, align 8, !tbaa !356
  call void @_ZN6duckdb17ScheduleEventDataC2ERKNS_6vectorINS_10shared_ptrINS_12MetaPipelineELb1EEELb1EEERNS1_INS2_INS_5EventELb1EEELb1EEEb(ptr noundef nonnull align 8 dereferenceable(80) %7, ptr noundef nonnull align 8 dereferenceable(24) %11, ptr noundef nonnull align 8 dereferenceable(24) %12, i1 noundef zeroext false)
  invoke void @_ZN6duckdb8Executor22ScheduleEventsInternalERNS_17ScheduleEventDataE(ptr noundef nonnull align 8 dereferenceable(424) %10, ptr noundef nonnull align 8 dereferenceable(80) %7)
          to label %13 unwind label %14

13:                                               ; preds = %3
  call void @_ZN6duckdb17ScheduleEventDataD2Ev(ptr noundef nonnull align 8 dereferenceable(80) %7) #24
  call void @llvm.lifetime.end.p0(i64 80, ptr %7) #24
  ret void

14:                                               ; preds = %3
  %15 = landingpad { ptr, i32 }
          cleanup
  %16 = extractvalue { ptr, i32 } %15, 0
  store ptr %16, ptr %8, align 8
  %17 = extractvalue { ptr, i32 } %15, 1
  store i32 %17, ptr %9, align 4
  call void @_ZN6duckdb17ScheduleEventDataD2Ev(ptr noundef nonnull align 8 dereferenceable(80) %7) #24
  call void @llvm.lifetime.end.p0(i64 80, ptr %7) #24
  br label %18

18:                                               ; preds = %14
  %19 = load ptr, ptr %8, align 8
  %20 = load i32, ptr %9, align 4
  %21 = insertvalue { ptr, i32 } poison, ptr %19, 0
  %22 = insertvalue { ptr, i32 } %21, i32 %20, 1
  resume { ptr, i32 } %22
}