; Function Attrs: mustprogress uwtable
define void @_ZN6duckdb8Executor19ReschedulePipelinesERKNS_6vectorINS_10shared_ptrINS_12MetaPipelineELb1EEELb1EEERNS1_INS2_INS_5EventELb1EEELb1EEE(ptr noundef nonnull readnone align 8 captures(none) dereferenceable(424) %0, ptr noundef nonnull align 8 dereferenceable(24) %1, ptr noundef nonnull align 8 dereferenceable(24) %2) local_unnamed_addr #0 align 2 personality ptr @__gxx_personality_v0 {
  %4 = alloca %"struct.duckdb::ScheduleEventData", align 8
  call void @llvm.lifetime.start.p0(i64 80, ptr nonnull %4) #35
  store ptr %1, ptr %4, align 8, !tbaa !560
  %5 = getelementptr inbounds nuw i8, ptr %4, i64 8
  store ptr %2, ptr %5, align 8, !tbaa !561
  %6 = getelementptr inbounds nuw i8, ptr %4, i64 16
  store i8 0, ptr %6, align 8, !tbaa !562
  %7 = getelementptr inbounds nuw i8, ptr %4, i64 24
  %8 = getelementptr inbounds nuw i8, ptr %4, i64 72
  store ptr %8, ptr %7, align 8, !tbaa !382
  %9 = getelementptr inbounds nuw i8, ptr %4, i64 32
  store i64 1, ptr %9, align 8, !tbaa !381
  %10 = getelementptr inbounds nuw i8, ptr %4, i64 40
  %11 = getelementptr inbounds nuw i8, ptr %4, i64 56
  call void @llvm.memset.p0.i64(ptr noundef nonnull align 8 dereferenceable(16) %10, i8 0, i64 16, i1 false)
  store float 1.000000e+00, ptr %11, align 8, !tbaa !112
  %12 = getelementptr inbounds nuw i8, ptr %4, i64 64
  call void @llvm.memset.p0.i64(ptr noundef nonnull align 8 dereferenceable(16) %12, i8 0, i64 16, i1 false)
  invoke void @_ZN6duckdb8Executor22ScheduleEventsInternalERNS_17ScheduleEventDataE(ptr nonnull align 8 poison, ptr noundef nonnull align 8 dereferenceable(80) %4)
          to label %13 unwind label %22

13:                                               ; preds = %3
  %14 = load ptr, ptr %10, align 8, !tbaa !563
  %.not5.i.i.i.i.i = icmp eq ptr %14, null
  br i1 %.not5.i.i.i.i.i, label %_ZNSt10_HashtableISt17reference_wrapperIN6duckdb8PipelineEESt4pairIKS3_NS1_18PipelineEventStackEESaIS7_ENSt8__detail10_Select1stENS1_17ReferenceEqualityIS2_EENS1_21ReferenceHashFunctionIS2_EENS9_18_Mod_range_hashingENS9_20_Default_ranged_hashENS9_20_Prime_rehash_policyENS9_17_Hashtable_traitsILb1ELb0ELb1EEEE5clearEv.exit.i.i.i, label %.lr.ph.i.i.i.i.i

.lr.ph.i.i.i.i.i:                                 ; preds = %13, %.lr.ph.i.i.i.i.i
  %.06.i.i.i.i.i = phi ptr [ %15, %.lr.ph.i.i.i.i.i ], [ %14, %13 ]
  %15 = load ptr, ptr %.06.i.i.i.i.i, align 8, !tbaa !132
  call void @_ZdlPv(ptr noundef nonnull %.06.i.i.i.i.i) #37
  %.not.i.i.i.i.i = icmp eq ptr %15, null
  br i1 %.not.i.i.i.i.i, label %_ZNSt10_HashtableISt17reference_wrapperIN6duckdb8PipelineEESt4pairIKS3_NS1_18PipelineEventStackEESaIS7_ENSt8__detail10_Select1stENS1_17ReferenceEqualityIS2_EENS1_21ReferenceHashFunctionIS2_EENS9_18_Mod_range_hashingENS9_20_Default_ranged_hashENS9_20_Prime_rehash_policyENS9_17_Hashtable_traitsILb1ELb0ELb1EEEE5clearEv.exit.i.i.i, label %.lr.ph.i.i.i.i.i, !llvm.loop !564

_ZNSt10_HashtableISt17reference_wrapperIN6duckdb8PipelineEESt4pairIKS3_NS1_18PipelineEventStackEESaIS7_ENSt8__detail10_Select1stENS1_17ReferenceEqualityIS2_EENS1_21ReferenceHashFunctionIS2_EENS9_18_Mod_range_hashingENS9_20_Default_ranged_hashENS9_20_Prime_rehash_policyENS9_17_Hashtable_traitsILb1ELb0ELb1EEEE5clearEv.exit.i.i.i: ; preds = %.lr.ph.i.i.i.i.i, %13
  %16 = load ptr, ptr %7, align 8, !tbaa !382
  %17 = load i64, ptr %9, align 8, !tbaa !381
  %18 = shl i64 %17, 3
  call void @llvm.memset.p0.i64(ptr align 8 %16, i8 0, i64 %18, i1 false)
  call void @llvm.memset.p0.i64(ptr noundef nonnull align 8 dereferenceable(16) %10, i8 0, i64 16, i1 false)
  %19 = load ptr, ptr %7, align 8, !tbaa !382
  %20 = icmp eq ptr %19, %8
  br i1 %20, label %_ZN6duckdb17ScheduleEventDataD2Ev.exit, label %21

21:                                               ; preds = %_ZNSt10_HashtableISt17reference_wrapperIN6duckdb8PipelineEESt4pairIKS3_NS1_18PipelineEventStackEESaIS7_ENSt8__detail10_Select1stENS1_17ReferenceEqualityIS2_EENS1_21ReferenceHashFunctionIS2_EENS9_18_Mod_range_hashingENS9_20_Default_ranged_hashENS9_20_Prime_rehash_policyENS9_17_Hashtable_traitsILb1ELb0ELb1EEEE5clearEv.exit.i.i.i
  call void @_ZdlPv(ptr noundef %19) #37
  br label %_ZN6duckdb17ScheduleEventDataD2Ev.exit

_ZN6duckdb17ScheduleEventDataD2Ev.exit:           ; preds = %_ZNSt10_HashtableISt17reference_wrapperIN6duckdb8PipelineEESt4pairIKS3_NS1_18PipelineEventStackEESaIS7_ENSt8__detail10_Select1stENS1_17ReferenceEqualityIS2_EENS1_21ReferenceHashFunctionIS2_EENS9_18_Mod_range_hashingENS9_20_Default_ranged_hashENS9_20_Prime_rehash_policyENS9_17_Hashtable_traitsILb1ELb0ELb1EEEE5clearEv.exit.i.i.i, %21
  call void @llvm.lifetime.end.p0(i64 80, ptr nonnull %4) #35
  ret void

22:                                               ; preds = %3
  %23 = landingpad { ptr, i32 }
          cleanup
  call void @_ZN6duckdb17ScheduleEventDataD2Ev(ptr noundef nonnull align 8 dereferenceable(80) %4) #35
  call void @llvm.lifetime.end.p0(i64 80, ptr nonnull %4) #35
  resume { ptr, i32 } %23
}